; Function Attrs: mustprogress nounwind uwtable
define hidden void @_ZN3api7context17set_interruptableD2Ev(ptr noundef nonnull readonly align 8 captures(none) dereferenceable(8) %0) unnamed_addr #8 align 2 personality ptr @__gxx_personality_v0 {
  %2 = load ptr, ptr %0, align 8, !tbaa !438
  %3 = getelementptr inbounds nuw i8, ptr %2, i64 256
  %4 = tail call noundef i32 @pthread_mutex_lock(ptr noundef nonnull align 8 dereferenceable(40) %3) #28
  %.not.i.i = icmp eq i32 %4, 0
  br i1 %.not.i.i, label %_ZNSt10lock_guardISt5mutexEC2ERS0_.exit, label %5

5:                                                ; preds = %1
  invoke void @_ZSt20__throw_system_errori(i32 noundef %4) #29
          to label %.noexc unwind label %13

.noexc:                                           ; preds = %5
  unreachable

_ZNSt10lock_guardISt5mutexEC2ERS0_.exit:          ; preds = %1
  %6 = load ptr, ptr %0, align 8, !tbaa !438
  %7 = getelementptr inbounds nuw i8, ptr %6, i64 1624
  %8 = load ptr, ptr %7, align 8, !tbaa !241
  %9 = getelementptr inbounds i8, ptr %8, i64 -4
  %10 = load i32, ptr %9, align 4, !tbaa !19
  %11 = add i32 %10, -1
  store i32 %11, ptr %9, align 4, !tbaa !19
  %12 = tail call noundef i32 @pthread_mutex_unlock(ptr noundef nonnull align 8 dereferenceable(40) %3) #28
  ret void

13:                                               ; preds = %5
  %14 = landingpad { ptr, i32 }
          catch ptr null
  %15 = extractvalue { ptr, i32 } %14, 0
  tail call void @__clang_call_terminate(ptr %15) #32
  unreachable
}